target datalayout = "e-m:e-p270:32:32-p271:32:32-p272:64:64-i64:64-i128:128-f80:128-n8:16:32:64-S128"
target triple = "x86_64-pc-linux-gnu"

%struct.st_engine_table = type { %struct.lhash_st_ENGINE_PILE }
%struct.lhash_st_ENGINE_PILE = type { %union.lh_ENGINE_PILE_dummy }
%union.lh_ENGINE_PILE_dummy = type { ptr }

@global_engine_lock = external global ptr, align 8

; Function Attrs: inlinehint nounwind uwtable
define internal void @lh_ENGINE_PILE_free(ptr noundef %0) #3 {
  %2 = alloca ptr, align 8
  store ptr %0, ptr %2, align 8, !tbaa !27
  %3 = load ptr, ptr %2, align 8, !tbaa !27
  call void @OPENSSL_LH_free(ptr noundef %3)
  ret void
}

; Function Attrs: inlinehint nounwind uwtable
define internal void @lh_ENGINE_PILE_doall(ptr noundef %0, ptr noundef %1) #3 {
  %3 = alloca ptr, align 8
  %4 = alloca ptr, align 8
  store ptr %0, ptr %3, align 8, !tbaa !27
  store ptr %1, ptr %4, align 8, !tbaa !10
  %5 = load ptr, ptr %3, align 8, !tbaa !27
  %6 = load ptr, ptr %4, align 8, !tbaa !10
  call void @OPENSSL_LH_doall(ptr noundef %5, ptr noundef %6)
  ret void
}

; Function Attrs: nounwind uwtable
define void @engine_table_cleanup(ptr noundef %0) #0 {
  %2 = alloca ptr, align 8
  store ptr %0, ptr %2, align 8, !tbaa !7
  %3 = load ptr, ptr @global_engine_lock, align 8, !tbaa !10
  %4 = call i32 @CRYPTO_THREAD_write_lock(ptr noundef %3)
  %5 = icmp ne i32 %4, 0
  br i1 %5, label %7, label %6

6:                                                ; preds = %1
  br label %22

7:                                                ; preds = %1
  %8 = load ptr, ptr %2, align 8, !tbaa !7
  %9 = load ptr, ptr %8, align 8, !tbaa !15
  %10 = icmp ne ptr %9, null
  br i1 %10, label %11, label %19

11:                                               ; preds = %7
  %12 = load ptr, ptr %2, align 8, !tbaa !7
  %13 = load ptr, ptr %12, align 8, !tbaa !15
  %14 = getelementptr inbounds nuw %struct.st_engine_table, ptr %13, i32 0, i32 0
  call void @lh_ENGINE_PILE_doall(ptr noundef %14, ptr noundef @int_cleanup_cb_doall)
  %15 = load ptr, ptr %2, align 8, !tbaa !7
  %16 = load ptr, ptr %15, align 8, !tbaa !15
  %17 = getelementptr inbounds nuw %struct.st_engine_table, ptr %16, i32 0, i32 0
  call void @lh_ENGINE_PILE_free(ptr noundef %17)
  %18 = load ptr, ptr %2, align 8, !tbaa !7
  store ptr null, ptr %18, align 8, !tbaa !15
  br label %19

19:                                               ; preds = %11, %7
  %20 = load ptr, ptr @global_engine_lock, align 8, !tbaa !10
  %21 = call i32 @CRYPTO_THREAD_unlock(ptr noundef %20)
  br label %22

22:                                               ; preds = %19, %6
  ret void
}