; Function Attrs: nounwind uwtable
define void @engine_table_cleanup(ptr noundef captures(none) %0) local_unnamed_addr #2 {
  %2 = load ptr, ptr @global_engine_lock, align 8, !tbaa !7
  %3 = tail call i32 @CRYPTO_THREAD_write_lock(ptr noundef %2) #7
  %.not = icmp eq i32 %3, 0
  br i1 %.not, label %11, label %4

4:                                                ; preds = %1
  %5 = load ptr, ptr %0, align 8, !tbaa !9
  %.not4 = icmp eq ptr %5, null
  br i1 %.not4, label %8, label %6

6:                                                ; preds = %4
  tail call void @OPENSSL_LH_doall(ptr noundef nonnull %5, ptr noundef nonnull @int_cleanup_cb_doall) #7
  %7 = load ptr, ptr %0, align 8, !tbaa !9
  tail call void @OPENSSL_LH_free(ptr noundef %7) #7
  store ptr null, ptr %0, align 8, !tbaa !9
  br label %8

8:                                                ; preds = %6, %4
  %9 = load ptr, ptr @global_engine_lock, align 8, !tbaa !7
  %10 = tail call i32 @CRYPTO_THREAD_unlock(ptr noundef %9) #7
  br label %11

11:                                               ; preds = %1, %8
  ret void
}